(lp0
(lp1
F22.890218777529814
aF12.002637019305574
aa(lp2
F8.591600893362639
aF2.236978458524841
aa(lp3
F94.90043185922356
aF39.259669508449946
aa(lp4
F90.35489860913147
aF70.05784279688658
aa(lp5
F89.92969466041579
aF40.42761837734232
aa(lp6
F63.742104037369316
aF78.44872284854289
aa(lp7
F12.08744008819015
aF29.57471582898049
aa(lp8
F70.61779213380423
aF11.717538703233132
aa(lp9
F35.26346890391583
aF42.0968794096819
aa(lp10
F63.10392617991906
aF13.693570084804419
aa(lp11
F36.268718231099186
aF47.79227403128883
aa(lp12
F61.127986056714775
aF68.24995671800914
aa(lp13
F68.40615375079673
aF10.311474636266272
aa(lp14
F34.241228226599205
aF12.169655969493098
aa(lp15
F36.63601648089275
aF56.23524145680761
aa(lp16
F50.21981779237146
aF49.18626562642484
aa(lp17
F57.77735779081643
aF48.35246205011473
aa(lp18
F11.418506638590998
aF20.062205632378028
aa(lp19
F67.05206916298624
aF6.287272039752578
aa(lp20
F34.047947195954094
aF4.156176469804651
aa.